(lp0
(lp1
L31L
aL99L
aL590L
aL599L
aL600L
aL732L
aL2007L
aL2165L
aL2197L
aL2281L
aL2473L
aL600095L
aL600131L
aL600148L
aL600481L
aL601006L
aa(lp2
L10L
aL428L
aL777L
aL822L
aL969L
aL2299L
aL2404L
aL600011L
aL600366L
aL600397L
aL600409L
aL600511L
aL600515L
aL600572L
aL600589L
aL600616L
aa(lp3
L28L
aL421L
aL518L
aL592L
aL593L
aL2200L
aL2222L
aL2446L
aL600227L
aL600372L
aL600392L
aL600559L
aL600566L
aL600634L
aL600827L
aL601166L
aa(lp4
L419L
aL625L
aL829L
aL2174L
aL2233L
aL2291L
aL2376L
aL2489L
aL600103L
aL600352L
aL600463L
aL600806L
aL600835L
aL600875L
aL600963L
aL601166L
aa(lp5
L1L
aL687L
aL2036L
aL2046L
aL2073L
aL2077L
aL2225L
aL2253L
aL2324L
aL600195L
aL600215L
aL600237L
aL600397L
aL600501L
aL600671L
aL600763L
aa(lp6
L543L
aL592L
aL815L
aL822L
aL938L
aL971L
aL2034L
aL2114L
aL2437L
aL600086L
aL600309L
aL600387L
aL600463L
aL600558L
aL600713L
aL600960L
aa(lp7
L581L
aL590L
aL785L
aL2091L
aL2102L
aL2133L
aL2134L
aL2288L
aL2334L
aL2440L
aL600097L
aL600396L
aL600483L
aL600677L
aL600871L
aL600879L
aa(lp8
L404L
aL529L
aL727L
aL782L
aL2041L
aL2160L
aL2224L
aL2262L
aL600380L
aL600408L
aL600577L
aL600654L
aL600687L
aL600770L
aL600797L
aL601333L
aa(lp9
L673L
aL707L
aL2009L
aL2014L
aL2047L
aL2337L
aL2367L
aL2450L
aL600021L
aL600530L
aL600614L
aL600635L
aL600674L
aL600726L
aL600811L
aL601989L
aa(lp10
L11L
aL430L
aL800L
aL882L
aL2253L
aL2370L
aL2419L
aL2429L
aL2477L
aL600074L
aL600111L
aL600252L
aL600289L
aL600425L
aL600519L
aL601628L
aa(lp11
L70L
aL651L
aL652L
aL785L
aL910L
aL933L
aL2129L
aL2236L
aL2421L
aL2425L
aL2479L
aL600161L
aL600383L
aL600500L
aL600566L
aL601018L
aa(lp12
L413L
aL554L
aL605L
aL915L
aL2129L
aL2375L
aL2382L
aL600011L
aL600018L
aL600158L
aL600306L
aL600671L
aL600699L
aL600715L
aL601328L
aL601857L
aa(lp13
L551L
aL598L
aL606L
aL856L
aL997L
aL2074L
aL2135L
aL2274L
aL2320L
aL2437L
aL600086L
aL600169L
aL600298L
aL600313L
aL600532L
aL600658L
aa(lp14
L429L
aL519L
aL669L
aL691L
aL2003L
aL2249L
aL2341L
aL2375L
aL2387L
aL2429L
aL2461L
aL600000L
aL600439L
aL600481L
aL600486L
aL600549L
aa(lp15
L7L
aL516L
aL589L
aL761L
aL818L
aL893L
aL901L
aL931L
aL948L
aL2212L
aL2222L
aL2251L
aL600083L
aL600171L
aL600778L
aL600884L
aa(lp16
L159L
aL550L
aL639L
aL2115L
aL2126L
aL2146L
aL2212L
aL2273L
aL2282L
aL2460L
aL600015L
aL600149L
aL600318L
aL600428L
aL600644L
aL600749L
aa(lp17
L24L
aL673L
aL2004L
aL2078L
aL2202L
aL2325L
aL2356L
aL2363L
aL2369L
aL2468L
aL600052L
aL600088L
aL600305L
aL600736L
aL600820L
aL600997L
aa(lp18
L680L
aL691L
aL709L
aL766L
aL838L
aL903L
aL2358L
aL2372L
aL600190L
aL600311L
aL600421L
aL600501L
aL600570L
aL600600L
aL600735L
aL601179L
aa(lp19
L565L
aL806L
aL959L
aL995L
aL2020L
aL2283L
aL2317L
aL2337L
aL2434L
aL600198L
aL600336L
aL600543L
aL600653L
aL600862L
aL600967L
aL601398L
aa(lp20
L5L
aL868L
aL932L
aL948L
aL2122L
aL2326L
aL2450L
aL2462L
aL2476L
aL600163L
aL600268L
aL600283L
aL600588L
aL600725L
aL600796L
aL601898L
aa(lp21
L49L
aL66L
aL513L
aL795L
aL858L
aL2030L
aL2070L
aL2201L
aL2375L
aL600016L
aL600525L
aL600529L
aL600533L
aL600747L
aL600816L
aL601107L
aa(lp22
L530L
aL893L
aL911L
aL2094L
aL2381L
aL2403L
aL2410L
aL2474L
aL600010L
aL600165L
aL600313L
aL600416L
aL600460L
aL600686L
aL600719L
aL600722L
aa(lp23
L4L
aL34L
aL527L
aL550L
aL629L
aL2219L
aL600072L
aL600120L
aL600125L
aL600213L
aL600240L
aL600320L
aL600650L
aL600758L
aL600868L
aL601989L
aa(lp24
L6L
aL420L
aL639L
aL2088L
aL2259L
aL2331L
aL2408L
aL2425L
aL2432L
aL600020L
aL600336L
aL600438L
aL600543L
aL600582L
aL600684L
aL600991L
aa(lp25
L948L
aL2023L
aL2284L
aL2386L
aL2401L
aL2471L
aL600112L
aL600113L
aL600130L
aL600222L
aL600496L
aL600520L
aL600696L
aL600763L
aL600860L
aL600987L
aa(lp26
L17L
aL513L
aL557L
aL628L
aL938L
aL2100L
aL2286L
aL600048L
aL600139L
aL600325L
aL600466L
aL600537L
aL600616L
aL600719L
aL600778L
aL601328L
aa(lp27
L639L
aL686L
aL935L
aL990L
aL2028L
aL2099L
aL2258L
aL2290L
aL2320L
aL2448L
aL600108L
aL600210L
aL600432L
aL600571L
aL600600L
aL601988L
aa(lp28
L43L
aL68L
aL630L
aL725L
aL2204L
aL2251L
aL2256L
aL2366L
aL2405L
aL600328L
aL600385L
aL600486L
aL600559L
aL600618L
aL600764L
aL601000L
aa(lp29
L153L
aL596L
aL2313L
aL2315L
aL2324L
aL2422L
aL600001L
aL600333L
aL600346L
aL600378L
aL600516L
aL600533L
aL600540L
aL600885L
aL600896L
aL601018L
aa(lp30
L23L
aL56L
aL632L
aL718L
aL806L
aL2136L
aL2326L
aL2332L
aL600353L
aL600356L
aL600481L
aL600663L
aL600743L
aL600980L
aL601166L
aL601877L
aa(lp31
L411L
aL702L
aL953L
aL2158L
aL2189L
aL2319L
aL600020L
aL600057L
aL600079L
aL600175L
aL600190L
aL600332L
aL600510L
aL600562L
aL600578L
aL601168L
aa(lp32
L400L
aL938L
aL2183L
aL2194L
aL2361L
aL2397L
aL2407L
aL2420L
aL2478L
aL600107L
aL600250L
aL600361L
aL600490L
aL600503L
aL600776L
aL601006L
aa(lp33
L19L
aL89L
aL597L
aL862L
aL2006L
aL2196L
aL2444L
aL2453L
aL600259L
aL600271L
aL600468L
aL600634L
aL600755L
aL600763L
aL600785L
aL600894L
aa(lp34
L420L
aL503L
aL630L
aL937L
aL980L
aL2218L
aL2233L
aL2454L
aL600218L
aL600231L
aL600271L
aL600327L
aL600362L
aL600589L
aL600739L
aL601998L
aa(lp35
L90L
aL925L
aL933L
aL2158L
aL2270L
aL2280L
aL600302L
aL600319L
aL600357L
aL600613L
aL600618L
aL600803L
aL600851L
aL600886L
aL600976L
aL600983L
aa(lp36
L10L
aL888L
aL912L
aL957L
aL2049L
aL2079L
aL2091L
aL2397L
aL600123L
aL600195L
aL600436L
aL600546L
aL600588L
aL600795L
aL600849L
aL601328L
aa(lp37
L62L
aL89L
aL571L
aL910L
aL2051L
aL2060L
aL2389L
aL2395L
aL600070L
aL600188L
aL600408L
aL600583L
aL600663L
aL600844L
aL600882L
aL600883L
aa(lp38
L36L
aL407L
aL616L
aL656L
aL698L
aL2243L
aL2251L
aL2253L
aL2354L
aL2387L
aL600210L
aL600353L
aL600498L
aL600507L
aL600687L
aL600692L
aa(lp39
L511L
aL533L
aL795L
aL835L
aL2034L
aL2274L
aL2375L
aL2407L
aL2451L
aL2476L
aL600238L
aL600261L
aL600438L
aL600678L
aL600792L
aL600825L
aa(lp40
L558L
aL683L
aL717L
aL973L
aL2053L
aL2251L
aL2359L
aL2391L
aL600238L
aL600280L
aL600365L
aL600610L
aL600698L
aL600725L
aL600809L
aL600861L
aa(lp41
L34L
aL619L
aL680L
aL2174L
aL600121L
aL600139L
aL600171L
aL600210L
aL600227L
aL600240L
aL600256L
aL600664L
aL600750L
aL600845L
aL601166L
aL601727L
aa(lp42
L520L
aL708L
aL795L
aL828L
aL2016L
aL2049L
aL2179L
aL2237L
aL2481L
aL600195L
aL600366L
aL600376L
aL600530L
aL600562L
aL600620L
aL601000L
aa(lp43
L569L
aL600L
aL632L
aL710L
aL755L
aL815L
aL926L
aL2034L
aL2410L
aL2423L
aL600251L
aL600565L
aL600588L
aL600707L
aL600718L
aL600802L
aa(lp44
L19L
aL25L
aL616L
aL667L
aL767L
aL815L
aL852L
aL882L
aL999L
aL2009L
aL2182L
aL2303L
aL2420L
aL600332L
aL600853L
aL601872L
aa(lp45
L30L
aL2010L
aL2052L
aL2148L
aL2287L
aL2385L
aL600015L
aL600149L
aL600172L
aL600316L
aL600475L
aL600621L
aL600633L
aL600640L
aL600774L
aL600870L
aa(lp46
L633L
aL725L
aL2023L
aL2075L
aL2176L
aL2215L
aL2351L
aL600037L
aL600371L
aL600393L
aL600482L
aL600577L
aL600754L
aL600778L
aL600980L
aL601989L
aa(lp47
L668L
aL830L
aL939L
aL2441L
aL600067L
aL600361L
aL600410L
aL600616L
aL600619L
aL600629L
aL600644L
aL600655L
aL600740L
aL600783L
aL600805L
aL601328L
aa(lp48
L413L
aL502L
aL680L
aL2016L
aL2186L
aL2214L
aL2235L
aL2321L
aL2391L
aL2467L
aL600236L
aL600345L
aL600435L
aL600869L
aL601268L
aL601919L
aa(lp49
L502L
aL729L
aL733L
aL790L
aL933L
aL2140L
aL2225L
aL2236L
aL2275L
aL2372L
aL600288L
aL600329L
aL600400L
aL600543L
aL600546L
aL600797L
aa(lp50
L10L
aL49L
aL400L
aL722L
aL753L
aL811L
aL839L
aL935L
aL966L
aL2052L
aL2116L
aL2398L
aL2473L
aL600075L
aL600376L
aL601139L
aa.